(dp1
S'ramius_anqi_pool_init'
p2
(idrift_common
PolicyParam
p3
(dp4
S'B_yaw_rate'
p5
F0.29999999999999999
sS'C_forward_rate'
p6
F1
sS'D_duration'
p7
F1
sS'E_duration'
p8
F5
sS'B_forward_rate'
p9
F1
sS'A_duration'
p10
F5
sS'C_duration'
p11
F5
sS'E_forward_rate'
p12
F1
sS'C_yaw_rate'
p13
F-0.29999999999999999
sS'A_forward_rate'
p14
F1
sS'B_duration'
p15
F2
sbsS'0'
g3
sS'sim_opt'
p16
(idrift_common
PolicyParam
p17
(dp18
g5
F0.5151
sg6
F1
sg7
F20
sg8
F10
sg9
F1
sg10
F10
sg11
F6
sg12
F1
sg13
F-0.9798
sg14
F1
sg15
F3
sbsS'sim_init'
p19
(idrift_common
PolicyParam
p20
(dp21
g5
F0.10000000000000001
sg6
F1
sg7
F1
sg8
F10
sg9
F1
sg10
F10
sg11
F6
sg12
F1
sg13
F-0.10000000000000001
sg14
F1
sg15
F3
sbsS'ramius_anqi_pool_opt'
p22
(idrift_common
PolicyParam
p23
(dp24
g5
F0.5
sg6
F1
sg7
F10
sg8
F5
sg9
F1
sg10
F5
sg11
F5
sg12
F1
sg13
F-1
sg14
F1
sg15
F2
sbs.